target datalayout = "e-m:e-p270:32:32-p271:32:32-p272:64:64-i64:64-i128:128-f80:128-n8:16:32:64-S128"
target triple = "x86_64-pc-linux-gnu"

%union.anon = type { ptr }
%struct.FFCodec = type { %struct.AVCodec, i32, i32, ptr, ptr, ptr, ptr, %union.anon, ptr, ptr, ptr, ptr, ptr, ptr }
%struct.AVCodec = type { ptr, ptr, i32, i32, i32, i8, ptr, ptr, ptr, ptr, ptr, ptr, ptr, ptr }
%struct.AVCodecContext = type { ptr, i32, i32, ptr, i32, i32, ptr, ptr, ptr, i64, i32, i32, ptr, i32, %struct.AVRational, %struct.AVRational, %struct.AVRational, i32, i32, i32, i32, i32, %struct.AVRational, i32, i32, i32, i32, i32, i32, i32, i32, i32, i32, i32, ptr, ptr, i32, float, float, float, float, float, float, float, float, float, i32, i32, i32, i32, i32, i32, i32, i32, i32, i32, i32, i32, ptr, ptr, ptr, i32, i32, i32, i32, i32, i32, i32, i32, i32, i32, %struct.AVChannelLayout, i32, i32, i32, i32, i32, i32, i32, i32, ptr, i32, i32, i32, float, float, i32, i32, i32, i32, i32, ptr, i64, i64, float, float, i32, i32, ptr, ptr, i32, i32, i32, i32, i32, ptr, ptr, ptr, ptr, i32, i32, [8 x i64], i32, i32, i32, i32, i32, i32, i32, ptr, ptr, i32, i32, i32, i32, i32, i32, i32, i32, i32, i32, ptr, ptr, i32, i32, ptr, ptr, ptr, ptr, i32, i32, i64, i32, i32, i64, ptr, i64, ptr, i32, ptr, i32 }
%struct.AVRational = type { i32, i32 }
%struct.AVChannelLayout = type { i32, i32, %union.anon.0, ptr }
%union.anon.0 = type { i64 }
%struct.IMM5Context = type { ptr, ptr }

@ff_h264_decoder = external hidden constant %struct.FFCodec, align 8
@ff_hevc_decoder = external hidden constant %struct.FFCodec, align 8

; Function Attrs: cold nounwind optsize uwtable
define internal i32 @imm5_init(ptr noundef %0) #0 {
  %2 = alloca i32, align 4
  %3 = alloca ptr, align 8
  %4 = alloca ptr, align 8
  %5 = alloca i32, align 4
  %6 = alloca i32, align 4
  store ptr %0, ptr %3, align 8, !tbaa !4
  call void @llvm.lifetime.start.p0(i64 8, ptr %4) #5
  %7 = load ptr, ptr %3, align 8, !tbaa !4
  %8 = getelementptr inbounds nuw %struct.AVCodecContext, ptr %7, i32 0, i32 6
  %9 = load ptr, ptr %8, align 8, !tbaa !9
  store ptr %9, ptr %4, align 8, !tbaa !29
  call void @llvm.lifetime.start.p0(i64 4, ptr %5) #5
  %10 = call ptr @avcodec_alloc_context3(ptr noundef @ff_h264_decoder)
  %11 = load ptr, ptr %4, align 8, !tbaa !29
  %12 = getelementptr inbounds nuw %struct.IMM5Context, ptr %11, i32 0, i32 0
  store ptr %10, ptr %12, align 8, !tbaa !31
  %13 = load ptr, ptr %4, align 8, !tbaa !29
  %14 = getelementptr inbounds nuw %struct.IMM5Context, ptr %13, i32 0, i32 0
  %15 = load ptr, ptr %14, align 8, !tbaa !31
  %16 = icmp ne ptr %15, null
  br i1 %16, label %18, label %17

17:                                               ; preds = %1
  store i32 -12, ptr %2, align 4
  store i32 1, ptr %6, align 4
  br label %82

18:                                               ; preds = %1
  %19 = load ptr, ptr %4, align 8, !tbaa !29
  %20 = getelementptr inbounds nuw %struct.IMM5Context, ptr %19, i32 0, i32 0
  %21 = load ptr, ptr %20, align 8, !tbaa !31
  %22 = getelementptr inbounds nuw %struct.AVCodecContext, ptr %21, i32 0, i32 116
  store i32 1, ptr %22, align 8, !tbaa !33
  %23 = load ptr, ptr %3, align 8, !tbaa !4
  %24 = getelementptr inbounds nuw %struct.AVCodecContext, ptr %23, i32 0, i32 10
  %25 = load i32, ptr %24, align 8, !tbaa !34
  %26 = load ptr, ptr %4, align 8, !tbaa !29
  %27 = getelementptr inbounds nuw %struct.IMM5Context, ptr %26, i32 0, i32 0
  %28 = load ptr, ptr %27, align 8, !tbaa !31
  %29 = getelementptr inbounds nuw %struct.AVCodecContext, ptr %28, i32 0, i32 10
  store i32 %25, ptr %29, align 8, !tbaa !34
  %30 = load ptr, ptr %3, align 8, !tbaa !4
  %31 = getelementptr inbounds nuw %struct.AVCodecContext, ptr %30, i32 0, i32 11
  %32 = load i32, ptr %31, align 4, !tbaa !35
  %33 = load ptr, ptr %4, align 8, !tbaa !29
  %34 = getelementptr inbounds nuw %struct.IMM5Context, ptr %33, i32 0, i32 0
  %35 = load ptr, ptr %34, align 8, !tbaa !31
  %36 = getelementptr inbounds nuw %struct.AVCodecContext, ptr %35, i32 0, i32 11
  store i32 %32, ptr %36, align 4, !tbaa !35
  %37 = load ptr, ptr %4, align 8, !tbaa !29
  %38 = getelementptr inbounds nuw %struct.IMM5Context, ptr %37, i32 0, i32 0
  %39 = load ptr, ptr %38, align 8, !tbaa !31
  %40 = call i32 @avcodec_open2(ptr noundef %39, ptr noundef null, ptr noundef null)
  store i32 %40, ptr %5, align 4, !tbaa !36
  %41 = load i32, ptr %5, align 4, !tbaa !36
  %42 = icmp slt i32 %41, 0
  br i1 %42, label %43, label %45

43:                                               ; preds = %18
  %44 = load i32, ptr %5, align 4, !tbaa !36
  store i32 %44, ptr %2, align 4
  store i32 1, ptr %6, align 4
  br label %82

45:                                               ; preds = %18
  %46 = call ptr @avcodec_alloc_context3(ptr noundef @ff_hevc_decoder)
  %47 = load ptr, ptr %4, align 8, !tbaa !29
  %48 = getelementptr inbounds nuw %struct.IMM5Context, ptr %47, i32 0, i32 1
  store ptr %46, ptr %48, align 8, !tbaa !37
  %49 = load ptr, ptr %4, align 8, !tbaa !29
  %50 = getelementptr inbounds nuw %struct.IMM5Context, ptr %49, i32 0, i32 1
  %51 = load ptr, ptr %50, align 8, !tbaa !37
  %52 = icmp ne ptr %51, null
  br i1 %52, label %54, label %53

53:                                               ; preds = %45
  store i32 -12, ptr %2, align 4
  store i32 1, ptr %6, align 4
  br label %82

54:                                               ; preds = %45
  %55 = load ptr, ptr %4, align 8, !tbaa !29
  %56 = getelementptr inbounds nuw %struct.IMM5Context, ptr %55, i32 0, i32 1
  %57 = load ptr, ptr %56, align 8, !tbaa !37
  %58 = getelementptr inbounds nuw %struct.AVCodecContext, ptr %57, i32 0, i32 116
  store i32 1, ptr %58, align 8, !tbaa !33
  %59 = load ptr, ptr %3, align 8, !tbaa !4
  %60 = getelementptr inbounds nuw %struct.AVCodecContext, ptr %59, i32 0, i32 10
  %61 = load i32, ptr %60, align 8, !tbaa !34
  %62 = load ptr, ptr %4, align 8, !tbaa !29
  %63 = getelementptr inbounds nuw %struct.IMM5Context, ptr %62, i32 0, i32 1
  %64 = load ptr, ptr %63, align 8, !tbaa !37
  %65 = getelementptr inbounds nuw %struct.AVCodecContext, ptr %64, i32 0, i32 10
  store i32 %61, ptr %65, align 8, !tbaa !34
  %66 = load ptr, ptr %3, align 8, !tbaa !4
  %67 = getelementptr inbounds nuw %struct.AVCodecContext, ptr %66, i32 0, i32 11
  %68 = load i32, ptr %67, align 4, !tbaa !35
  %69 = load ptr, ptr %4, align 8, !tbaa !29
  %70 = getelementptr inbounds nuw %struct.IMM5Context, ptr %69, i32 0, i32 1
  %71 = load ptr, ptr %70, align 8, !tbaa !37
  %72 = getelementptr inbounds nuw %struct.AVCodecContext, ptr %71, i32 0, i32 11
  store i32 %68, ptr %72, align 4, !tbaa !35
  %73 = load ptr, ptr %4, align 8, !tbaa !29
  %74 = getelementptr inbounds nuw %struct.IMM5Context, ptr %73, i32 0, i32 1
  %75 = load ptr, ptr %74, align 8, !tbaa !37
  %76 = call i32 @avcodec_open2(ptr noundef %75, ptr noundef null, ptr noundef null)
  store i32 %76, ptr %5, align 4, !tbaa !36
  %77 = load i32, ptr %5, align 4, !tbaa !36
  %78 = icmp slt i32 %77, 0
  br i1 %78, label %79, label %81

79:                                               ; preds = %54
  %80 = load i32, ptr %5, align 4, !tbaa !36
  store i32 %80, ptr %2, align 4
  store i32 1, ptr %6, align 4
  br label %82

81:                                               ; preds = %54
  store i32 0, ptr %2, align 4
  store i32 1, ptr %6, align 4
  br label %82

82:                                               ; preds = %81, %79, %53, %43, %17
  call void @llvm.lifetime.end.p0(i64 4, ptr %5) #5
  call void @llvm.lifetime.end.p0(i64 8, ptr %4) #5
  %83 = load i32, ptr %2, align 4
  ret i32 %83
}