; Function Attrs: cold nounwind optsize uwtable
define internal range(i32 -2147483648, 1) i32 @imm5_init(ptr noundef readonly captures(none) %0) #0 {
  %2 = getelementptr inbounds nuw i8, ptr %0, i64 32
  %3 = load ptr, ptr %2, align 8, !tbaa !4
  %4 = tail call ptr @avcodec_alloc_context3(ptr noundef nonnull @ff_h264_decoder) #5
  store ptr %4, ptr %3, align 8, !tbaa !27
  %.not = icmp eq ptr %4, null
  br i1 %.not, label %25, label %5

5:                                                ; preds = %1
  %6 = getelementptr inbounds nuw i8, ptr %4, i64 656
  store i32 1, ptr %6, align 8, !tbaa !30
  %7 = getelementptr inbounds nuw i8, ptr %0, i64 64
  %8 = load i32, ptr %7, align 8, !tbaa !31
  %9 = getelementptr inbounds nuw i8, ptr %4, i64 64
  store i32 %8, ptr %9, align 8, !tbaa !31
  %10 = getelementptr inbounds nuw i8, ptr %0, i64 68
  %11 = load i32, ptr %10, align 4, !tbaa !32
  %12 = getelementptr inbounds nuw i8, ptr %4, i64 68
  store i32 %11, ptr %12, align 4, !tbaa !32
  %13 = tail call i32 @avcodec_open2(ptr noundef nonnull %4, ptr noundef null, ptr noundef null) #5
  %14 = icmp slt i32 %13, 0
  br i1 %14, label %25, label %15

15:                                               ; preds = %5
  %16 = tail call ptr @avcodec_alloc_context3(ptr noundef nonnull @ff_hevc_decoder) #5
  %17 = getelementptr inbounds nuw i8, ptr %3, i64 8
  store ptr %16, ptr %17, align 8, !tbaa !33
  %.not25 = icmp eq ptr %16, null
  br i1 %.not25, label %25, label %18

18:                                               ; preds = %15
  %19 = getelementptr inbounds nuw i8, ptr %16, i64 656
  store i32 1, ptr %19, align 8, !tbaa !30
  %20 = load i32, ptr %7, align 8, !tbaa !31
  %21 = getelementptr inbounds nuw i8, ptr %16, i64 64
  store i32 %20, ptr %21, align 8, !tbaa !31
  %22 = load i32, ptr %10, align 4, !tbaa !32
  %23 = getelementptr inbounds nuw i8, ptr %16, i64 68
  store i32 %22, ptr %23, align 4, !tbaa !32
  %24 = tail call i32 @avcodec_open2(ptr noundef nonnull %16, ptr noundef null, ptr noundef null) #5
  %. = tail call i32 @llvm.smin.i32(i32 %24, i32 0)
  br label %25

25:                                               ; preds = %18, %15, %5, %1
  %.0 = phi i32 [ -12, %1 ], [ %13, %5 ], [ -12, %15 ], [ %., %18 ]
  ret i32 %.0
}